; Function Attrs: nounwind uwtable
define ptr @lv_subject_add_observer_with_target(ptr noundef %0, ptr noundef %1, ptr noundef %2, ptr noundef %3) local_unnamed_addr #0 {
  %.not = icmp eq ptr %0, null
  br i1 %.not, label %.preheader, label %5

.preheader:                                       ; preds = %4, %.preheader
  br label %.preheader

5:                                                ; preds = %4
  %6 = getelementptr inbounds nuw i8, ptr %0, i64 48
  %7 = load i32, ptr %6, align 8
  %8 = and i32 %7, 15
  %9 = icmp eq i32 %8, 0
  br i1 %9, label %17, label %10

10:                                               ; preds = %5
  %11 = tail call ptr @lv_ll_ins_tail(ptr noundef nonnull %0) #9
  %.not23 = icmp eq ptr %11, null
  br i1 %.not23, label %.preheader25, label %12

.preheader25:                                     ; preds = %10, %.preheader25
  br label %.preheader25

12:                                               ; preds = %10
  tail call void @lv_memset(ptr noundef nonnull %11, i8 noundef zeroext 0, i64 noundef 40) #9
  store ptr %0, ptr %11, align 8, !tbaa !9
  %13 = getelementptr inbounds nuw i8, ptr %11, i64 8
  store ptr %1, ptr %13, align 8, !tbaa !12
  %14 = getelementptr inbounds nuw i8, ptr %11, i64 24
  store ptr %3, ptr %14, align 8, !tbaa !13
  %15 = getelementptr inbounds nuw i8, ptr %11, i64 16
  store ptr %2, ptr %15, align 8, !tbaa !14
  %.not24 = icmp eq ptr %1, null
  br i1 %.not24, label %17, label %16

16:                                               ; preds = %12
  tail call void %1(ptr noundef nonnull %11, ptr noundef nonnull %0) #9
  br label %17

17:                                               ; preds = %16, %12, %5
  %.0 = phi ptr [ null, %5 ], [ %11, %12 ], [ %11, %16 ]
  ret ptr %.0
}